target datalayout = "e-m:e-p270:32:32-p271:32:32-p272:64:64-i64:64-i128:128-f80:128-n8:16:32:64-S128"
target triple = "x86_64-pc-linux-gnu"

%struct.sp_int = type { i16, i16, [129 x i64] }

; Function Attrs: nounwind uwtable
define internal void @sp_clamp_ct(ptr noundef %0) #0 {
  %2 = alloca ptr, align 8
  %3 = alloca i32, align 4
  %4 = alloca i16, align 2
  %5 = alloca i16, align 2
  store ptr %0, ptr %2, align 8, !tbaa !3
  call void @llvm.lifetime.start.p0(i64 4, ptr %3) #8
  call void @llvm.lifetime.start.p0(i64 2, ptr %4) #8
  %6 = load ptr, ptr %2, align 8, !tbaa !3
  %7 = getelementptr inbounds nuw %struct.sp_int, ptr %6, i32 0, i32 0
  %8 = load i16, ptr %7, align 8, !tbaa !15
  store i16 %8, ptr %4, align 2, !tbaa !32
  call void @llvm.lifetime.start.p0(i64 2, ptr %5) #8
  store i16 -1, ptr %5, align 2, !tbaa !32
  %9 = load ptr, ptr %2, align 8, !tbaa !3
  %10 = getelementptr inbounds nuw %struct.sp_int, ptr %9, i32 0, i32 0
  %11 = load i16, ptr %10, align 8, !tbaa !15
  %12 = zext i16 %11 to i32
  %13 = sub nsw i32 %12, 1
  store i32 %13, ptr %3, align 4, !tbaa !8
  br label %14

14:                                               ; preds = %48, %1
  %15 = load i32, ptr %3, align 4, !tbaa !8
  %16 = icmp sge i32 %15, 0
  br i1 %16, label %17, label %51

17:                                               ; preds = %14
  %18 = load i16, ptr %4, align 2, !tbaa !32
  %19 = zext i16 %18 to i32
  %20 = load ptr, ptr %2, align 8, !tbaa !3
  %21 = getelementptr inbounds nuw %struct.sp_int, ptr %20, i32 0, i32 2
  %22 = load i32, ptr %3, align 4, !tbaa !8
  %23 = sext i32 %22 to i64
  %24 = getelementptr inbounds [129 x i64], ptr %21, i64 0, i64 %23
  %25 = load i64, ptr %24, align 8, !tbaa !16
  %26 = icmp eq i64 %25, 0
  %27 = zext i1 %26 to i32
  %28 = load i16, ptr %5, align 2, !tbaa !32
  %29 = zext i16 %28 to i32
  %30 = and i32 %27, %29
  %31 = sub nsw i32 %19, %30
  %32 = trunc i32 %31 to i16
  store i16 %32, ptr %4, align 2, !tbaa !32
  %33 = load ptr, ptr %2, align 8, !tbaa !3
  %34 = getelementptr inbounds nuw %struct.sp_int, ptr %33, i32 0, i32 2
  %35 = load i32, ptr %3, align 4, !tbaa !8
  %36 = sext i32 %35 to i64
  %37 = getelementptr inbounds [129 x i64], ptr %34, i64 0, i64 %36
  %38 = load i64, ptr %37, align 8, !tbaa !16
  %39 = icmp eq i64 %38, 0
  %40 = zext i1 %39 to i32
  %41 = sub nsw i32 0, %40
  %42 = trunc i32 %41 to i16
  %43 = zext i16 %42 to i32
  %44 = load i16, ptr %5, align 2, !tbaa !32
  %45 = zext i16 %44 to i32
  %46 = and i32 %45, %43
  %47 = trunc i32 %46 to i16
  store i16 %47, ptr %5, align 2, !tbaa !32
  br label %48

48:                                               ; preds = %17
  %49 = load i32, ptr %3, align 4, !tbaa !8
  %50 = add nsw i32 %49, -1
  store i32 %50, ptr %3, align 4, !tbaa !8
  br label %14, !llvm.loop !75

51:                                               ; preds = %14
  %52 = load i16, ptr %4, align 2, !tbaa !32
  %53 = load ptr, ptr %2, align 8, !tbaa !3
  %54 = getelementptr inbounds nuw %struct.sp_int, ptr %53, i32 0, i32 0
  store i16 %52, ptr %54, align 8, !tbaa !15
  call void @llvm.lifetime.end.p0(i64 2, ptr %5) #8
  call void @llvm.lifetime.end.p0(i64 2, ptr %4) #8
  call void @llvm.lifetime.end.p0(i64 4, ptr %3) #8
  ret void
}

; Function Attrs: nounwind uwtable
define i32 @sp_addmod_ct(ptr noundef %0, ptr noundef %1, ptr noundef %2, ptr noundef %3) #0 {
  %5 = alloca ptr, align 8
  %6 = alloca ptr, align 8
  %7 = alloca ptr, align 8
  %8 = alloca ptr, align 8
  %9 = alloca i32, align 4
  %10 = alloca i128, align 16
  %11 = alloca i128, align 16
  %12 = alloca i64, align 8
  %13 = alloca i64, align 8
  %14 = alloca i64, align 8
  %15 = alloca i16, align 2
  store ptr %0, ptr %5, align 8, !tbaa !3
  store ptr %1, ptr %6, align 8, !tbaa !3
  store ptr %2, ptr %7, align 8, !tbaa !3
  store ptr %3, ptr %8, align 8, !tbaa !3
  call void @llvm.lifetime.start.p0(i64 4, ptr %9) #8
  store i32 0, ptr %9, align 4, !tbaa !8
  call void @llvm.lifetime.start.p0(i64 16, ptr %10) #8
  call void @llvm.lifetime.start.p0(i64 16, ptr %11) #8
  call void @llvm.lifetime.start.p0(i64 8, ptr %12) #8
  call void @llvm.lifetime.start.p0(i64 8, ptr %13) #8
  store i64 -1, ptr %13, align 8, !tbaa !16
  call void @llvm.lifetime.start.p0(i64 8, ptr %14) #8
  store i64 -1, ptr %14, align 8, !tbaa !16
  call void @llvm.lifetime.start.p0(i64 2, ptr %15) #8
  %16 = load ptr, ptr %7, align 8, !tbaa !3
  %17 = getelementptr inbounds nuw %struct.sp_int, ptr %16, i32 0, i32 0
  %18 = load i16, ptr %17, align 8, !tbaa !15
  %19 = zext i16 %18 to i32
  %20 = load ptr, ptr %8, align 8, !tbaa !3
  %21 = getelementptr inbounds nuw %struct.sp_int, ptr %20, i32 0, i32 1
  %22 = load i16, ptr %21, align 2, !tbaa !12
  %23 = zext i16 %22 to i32
  %24 = icmp sgt i32 %19, %23
  br i1 %24, label %25, label %26

25:                                               ; preds = %4
  store i32 -98, ptr %9, align 4, !tbaa !8
  br label %26

26:                                               ; preds = %25, %4
  %27 = load i32, ptr %9, align 4, !tbaa !8
  %28 = icmp eq i32 %27, 0
  br i1 %28, label %29, label %34

29:                                               ; preds = %26
  %30 = load ptr, ptr %8, align 8, !tbaa !3
  %31 = load ptr, ptr %7, align 8, !tbaa !3
  %32 = icmp eq ptr %30, %31
  br i1 %32, label %33, label %34

33:                                               ; preds = %29
  store i32 -98, ptr %9, align 4, !tbaa !8
  br label %34

34:                                               ; preds = %33, %29, %26
  %35 = load i32, ptr %9, align 4, !tbaa !8
  %36 = icmp eq i32 %35, 0
  br i1 %36, label %37, label %176

37:                                               ; preds = %34
  store i128 0, ptr %10, align 16, !tbaa !47
  store i128 0, ptr %11, align 16, !tbaa !47
  store i16 0, ptr %15, align 2, !tbaa !32
  br label %38

38:                                               ; preds = %116, %37
  %39 = load i16, ptr %15, align 2, !tbaa !32
  %40 = zext i16 %39 to i32
  %41 = load ptr, ptr %7, align 8, !tbaa !3
  %42 = getelementptr inbounds nuw %struct.sp_int, ptr %41, i32 0, i32 0
  %43 = load i16, ptr %42, align 8, !tbaa !15
  %44 = zext i16 %43 to i32
  %45 = icmp slt i32 %40, %44
  br i1 %45, label %46, label %119

46:                                               ; preds = %38
  %47 = load i16, ptr %15, align 2, !tbaa !32
  %48 = zext i16 %47 to i32
  %49 = load ptr, ptr %5, align 8, !tbaa !3
  %50 = getelementptr inbounds nuw %struct.sp_int, ptr %49, i32 0, i32 0
  %51 = load i16, ptr %50, align 8, !tbaa !15
  %52 = zext i16 %51 to i32
  %53 = icmp eq i32 %48, %52
  %54 = zext i1 %53 to i32
  %55 = sext i32 %54 to i64
  %56 = load i64, ptr %13, align 8, !tbaa !16
  %57 = add i64 %56, %55
  store i64 %57, ptr %13, align 8, !tbaa !16
  %58 = load i16, ptr %15, align 2, !tbaa !32
  %59 = zext i16 %58 to i32
  %60 = load ptr, ptr %6, align 8, !tbaa !3
  %61 = getelementptr inbounds nuw %struct.sp_int, ptr %60, i32 0, i32 0
  %62 = load i16, ptr %61, align 8, !tbaa !15
  %63 = zext i16 %62 to i32
  %64 = icmp eq i32 %59, %63
  %65 = zext i1 %64 to i32
  %66 = sext i32 %65 to i64
  %67 = load i64, ptr %14, align 8, !tbaa !16
  %68 = add i64 %67, %66
  store i64 %68, ptr %14, align 8, !tbaa !16
  %69 = load ptr, ptr %5, align 8, !tbaa !3
  %70 = getelementptr inbounds nuw %struct.sp_int, ptr %69, i32 0, i32 2
  %71 = load i16, ptr %15, align 2, !tbaa !32
  %72 = zext i16 %71 to i64
  %73 = getelementptr inbounds nuw [129 x i64], ptr %70, i64 0, i64 %72
  %74 = load i64, ptr %73, align 8, !tbaa !16
  %75 = load i64, ptr %13, align 8, !tbaa !16
  %76 = and i64 %74, %75
  %77 = zext i64 %76 to i128
  %78 = load i128, ptr %10, align 16, !tbaa !47
  %79 = add nsw i128 %78, %77
  store i128 %79, ptr %10, align 16, !tbaa !47
  %80 = load ptr, ptr %6, align 8, !tbaa !3
  %81 = getelementptr inbounds nuw %struct.sp_int, ptr %80, i32 0, i32 2
  %82 = load i16, ptr %15, align 2, !tbaa !32
  %83 = zext i16 %82 to i64
  %84 = getelementptr inbounds nuw [129 x i64], ptr %81, i64 0, i64 %83
  %85 = load i64, ptr %84, align 8, !tbaa !16
  %86 = load i64, ptr %14, align 8, !tbaa !16
  %87 = and i64 %85, %86
  %88 = zext i64 %87 to i128
  %89 = load i128, ptr %10, align 16, !tbaa !47
  %90 = add nsw i128 %89, %88
  store i128 %90, ptr %10, align 16, !tbaa !47
  %91 = load i128, ptr %10, align 16, !tbaa !47
  %92 = trunc i128 %91 to i64
  %93 = load ptr, ptr %8, align 8, !tbaa !3
  %94 = getelementptr inbounds nuw %struct.sp_int, ptr %93, i32 0, i32 2
  %95 = load i16, ptr %15, align 2, !tbaa !32
  %96 = zext i16 %95 to i64
  %97 = getelementptr inbounds nuw [129 x i64], ptr %94, i64 0, i64 %96
  store i64 %92, ptr %97, align 8, !tbaa !16
  %98 = load i128, ptr %10, align 16, !tbaa !47
  %99 = trunc i128 %98 to i64
  %100 = zext i64 %99 to i128
  %101 = load i128, ptr %11, align 16, !tbaa !47
  %102 = add nsw i128 %101, %100
  store i128 %102, ptr %11, align 16, !tbaa !47
  %103 = load ptr, ptr %7, align 8, !tbaa !3
  %104 = getelementptr inbounds nuw %struct.sp_int, ptr %103, i32 0, i32 2
  %105 = load i16, ptr %15, align 2, !tbaa !32
  %106 = zext i16 %105 to i64
  %107 = getelementptr inbounds nuw [129 x i64], ptr %104, i64 0, i64 %106
  %108 = load i64, ptr %107, align 8, !tbaa !16
  %109 = zext i64 %108 to i128
  %110 = load i128, ptr %11, align 16, !tbaa !47
  %111 = sub nsw i128 %110, %109
  store i128 %111, ptr %11, align 16, !tbaa !47
  %112 = load i128, ptr %11, align 16, !tbaa !47
  %113 = ashr i128 %112, 64
  store i128 %113, ptr %11, align 16, !tbaa !47
  %114 = load i128, ptr %10, align 16, !tbaa !47
  %115 = ashr i128 %114, 64
  store i128 %115, ptr %10, align 16, !tbaa !47
  br label %116

116:                                              ; preds = %46
  %117 = load i16, ptr %15, align 2, !tbaa !32
  %118 = add i16 %117, 1
  store i16 %118, ptr %15, align 2, !tbaa !32
  br label %38, !llvm.loop !73

119:                                              ; preds = %38
  %120 = load i128, ptr %10, align 16, !tbaa !47
  %121 = trunc i128 %120 to i64
  %122 = zext i64 %121 to i128
  %123 = load i128, ptr %11, align 16, !tbaa !47
  %124 = add nsw i128 %123, %122
  store i128 %124, ptr %11, align 16, !tbaa !47
  %125 = load i128, ptr %11, align 16, !tbaa !47
  %126 = icmp sge i128 %125, 0
  %127 = zext i1 %126 to i32
  %128 = sext i32 %127 to i64
  %129 = sub i64 0, %128
  store i64 %129, ptr %12, align 8, !tbaa !16
  store i128 0, ptr %10, align 16, !tbaa !47
  store i16 0, ptr %15, align 2, !tbaa !32
  br label %130

130:                                              ; preds = %168, %119
  %131 = load i16, ptr %15, align 2, !tbaa !32
  %132 = zext i16 %131 to i32
  %133 = load ptr, ptr %7, align 8, !tbaa !3
  %134 = getelementptr inbounds nuw %struct.sp_int, ptr %133, i32 0, i32 0
  %135 = load i16, ptr %134, align 8, !tbaa !15
  %136 = zext i16 %135 to i32
  %137 = icmp slt i32 %132, %136
  br i1 %137, label %138, label %171

138:                                              ; preds = %130
  %139 = load ptr, ptr %8, align 8, !tbaa !3
  %140 = getelementptr inbounds nuw %struct.sp_int, ptr %139, i32 0, i32 2
  %141 = load i16, ptr %15, align 2, !tbaa !32
  %142 = zext i16 %141 to i64
  %143 = getelementptr inbounds nuw [129 x i64], ptr %140, i64 0, i64 %142
  %144 = load i64, ptr %143, align 8, !tbaa !16
  %145 = zext i64 %144 to i128
  %146 = load i128, ptr %10, align 16, !tbaa !47
  %147 = add nsw i128 %146, %145
  store i128 %147, ptr %10, align 16, !tbaa !47
  %148 = load ptr, ptr %7, align 8, !tbaa !3
  %149 = getelementptr inbounds nuw %struct.sp_int, ptr %148, i32 0, i32 2
  %150 = load i16, ptr %15, align 2, !tbaa !32
  %151 = zext i16 %150 to i64
  %152 = getelementptr inbounds nuw [129 x i64], ptr %149, i64 0, i64 %151
  %153 = load i64, ptr %152, align 8, !tbaa !16
  %154 = load i64, ptr %12, align 8, !tbaa !16
  %155 = and i64 %153, %154
  %156 = zext i64 %155 to i128
  %157 = load i128, ptr %10, align 16, !tbaa !47
  %158 = sub nsw i128 %157, %156
  store i128 %158, ptr %10, align 16, !tbaa !47
  %159 = load i128, ptr %10, align 16, !tbaa !47
  %160 = trunc i128 %159 to i64
  %161 = load ptr, ptr %8, align 8, !tbaa !3
  %162 = getelementptr inbounds nuw %struct.sp_int, ptr %161, i32 0, i32 2
  %163 = load i16, ptr %15, align 2, !tbaa !32
  %164 = zext i16 %163 to i64
  %165 = getelementptr inbounds nuw [129 x i64], ptr %162, i64 0, i64 %164
  store i64 %160, ptr %165, align 8, !tbaa !16
  %166 = load i128, ptr %10, align 16, !tbaa !47
  %167 = ashr i128 %166, 64
  store i128 %167, ptr %10, align 16, !tbaa !47
  br label %168

168:                                              ; preds = %138
  %169 = load i16, ptr %15, align 2, !tbaa !32
  %170 = add i16 %169, 1
  store i16 %170, ptr %15, align 2, !tbaa !32
  br label %130, !llvm.loop !74

171:                                              ; preds = %130
  %172 = load i16, ptr %15, align 2, !tbaa !32
  %173 = load ptr, ptr %8, align 8, !tbaa !3
  %174 = getelementptr inbounds nuw %struct.sp_int, ptr %173, i32 0, i32 0
  store i16 %172, ptr %174, align 8, !tbaa !15
  %175 = load ptr, ptr %8, align 8, !tbaa !3
  call void @sp_clamp_ct(ptr noundef %175)
  br label %176

176:                                              ; preds = %171, %34
  %177 = load i32, ptr %9, align 4, !tbaa !8
  call void @llvm.lifetime.end.p0(i64 2, ptr %15) #8
  call void @llvm.lifetime.end.p0(i64 8, ptr %14) #8
  call void @llvm.lifetime.end.p0(i64 8, ptr %13) #8
  call void @llvm.lifetime.end.p0(i64 8, ptr %12) #8
  call void @llvm.lifetime.end.p0(i64 16, ptr %11) #8
  call void @llvm.lifetime.end.p0(i64 16, ptr %10) #8
  call void @llvm.lifetime.end.p0(i64 4, ptr %9) #8
  ret i32 %177
}