; Function Attrs: nofree norecurse nosync nounwind memory(argmem: readwrite) uwtable
define range(i32 -98, 1) i32 @sp_addmod_ct(ptr noundef readonly captures(none) %0, ptr noundef readonly captures(none) %1, ptr noundef readonly captures(address) %2, ptr noundef captures(address) %3) local_unnamed_addr #8 {
  %5 = load i16, ptr %2, align 8, !tbaa !12
  %6 = getelementptr inbounds nuw i8, ptr %3, i64 2
  %7 = load i16, ptr %6, align 2, !tbaa !10
  %.not = icmp ule i16 %5, %7
  %8 = icmp ne ptr %3, %2
  %.not63 = and i1 %8, %.not
  br i1 %.not63, label %.preheader, label %68

.preheader:                                       ; preds = %4
  %.not77 = icmp eq i16 %5, 0
  br i1 %.not77, label %sp_clamp_ct.exit, label %.lr.ph

.lr.ph:                                           ; preds = %.preheader
  %9 = load i16, ptr %0, align 8, !tbaa !12
  %10 = load i16, ptr %1, align 8, !tbaa !12
  %11 = getelementptr inbounds nuw i8, ptr %0, i64 8
  %12 = getelementptr inbounds nuw i8, ptr %1, i64 8
  %13 = getelementptr inbounds nuw i8, ptr %3, i64 8
  %14 = getelementptr inbounds nuw i8, ptr %2, i64 8
  %15 = zext i16 %10 to i64
  %16 = zext i16 %9 to i64
  %wide.trip.count = zext i16 %5 to i64
  br label %17

17:                                               ; preds = %.lr.ph, %17
  %indvars.iv = phi i64 [ 0, %.lr.ph ], [ %indvars.iv.next, %17 ]
  %.05368 = phi i64 [ -1, %.lr.ph ], [ %23, %17 ]
  %.05467 = phi i64 [ -1, %.lr.ph ], [ %20, %17 ]
  %.05766 = phi i128 [ 0, %.lr.ph ], [ %42, %17 ]
  %.05865 = phi i128 [ 0, %.lr.ph ], [ %43, %17 ]
  %18 = icmp eq i64 %indvars.iv, %16
  %19 = zext i1 %18 to i64
  %20 = add i64 %.05467, %19
  %21 = icmp eq i64 %indvars.iv, %15
  %22 = zext i1 %21 to i64
  %23 = add i64 %.05368, %22
  %24 = getelementptr inbounds nuw [129 x i64], ptr %11, i64 0, i64 %indvars.iv
  %25 = load i64, ptr %24, align 8, !tbaa !8
  %26 = and i64 %20, %25
  %27 = zext i64 %26 to i128
  %28 = add nuw nsw i128 %.05865, %27
  %29 = getelementptr inbounds nuw [129 x i64], ptr %12, i64 0, i64 %indvars.iv
  %30 = load i64, ptr %29, align 8, !tbaa !8
  %31 = and i64 %23, %30
  %32 = zext i64 %31 to i128
  %33 = add nuw nsw i128 %28, %32
  %34 = trunc i128 %33 to i64
  %35 = getelementptr inbounds nuw [129 x i64], ptr %13, i64 0, i64 %indvars.iv
  store i64 %34, ptr %35, align 8, !tbaa !8
  %36 = and i128 %33, 18446744073709551615
  %37 = getelementptr inbounds nuw [129 x i64], ptr %14, i64 0, i64 %indvars.iv
  %38 = load i64, ptr %37, align 8, !tbaa !8
  %39 = zext i64 %38 to i128
  %40 = sub nsw i128 %.05766, %39
  %41 = add nsw i128 %40, %36
  %42 = ashr i128 %41, 64
  %43 = lshr i128 %33, 64
  %indvars.iv.next = add nuw nsw i64 %indvars.iv, 1
  %exitcond.not = icmp eq i64 %indvars.iv.next, %wide.trip.count
  br i1 %exitcond.not, label %.lr.ph74, label %17, !llvm.loop !52

.lr.ph74:                                         ; preds = %17
  %44 = add nsw i128 %42, %43
  %45 = getelementptr inbounds nuw i8, ptr %3, i64 8
  %46 = getelementptr inbounds nuw i8, ptr %2, i64 8
  %.fr = freeze i128 %44
  %.inv = icmp slt i128 %.fr, 0
  %wide.trip.count93 = zext i16 %5 to i64
  br i1 %.inv, label %.lr.ph.i, label %.lr.ph74.split

.lr.ph74.split:                                   ; preds = %.lr.ph74, %.lr.ph74.split
  %indvars.iv85 = phi i64 [ %indvars.iv.next86, %.lr.ph74.split ], [ 0, %.lr.ph74 ]
  %.15971 = phi i128 [ %56, %.lr.ph74.split ], [ 0, %.lr.ph74 ]
  %47 = getelementptr inbounds nuw [129 x i64], ptr %45, i64 0, i64 %indvars.iv85
  %48 = load i64, ptr %47, align 8, !tbaa !8
  %49 = zext i64 %48 to i128
  %50 = add nsw i128 %.15971, %49
  %51 = getelementptr inbounds nuw [129 x i64], ptr %46, i64 0, i64 %indvars.iv85
  %52 = load i64, ptr %51, align 8, !tbaa !8
  %53 = zext i64 %52 to i128
  %54 = sub nsw i128 %50, %53
  %55 = trunc i128 %54 to i64
  store i64 %55, ptr %47, align 8, !tbaa !8
  %56 = ashr i128 %54, 64
  %indvars.iv.next86 = add nuw nsw i64 %indvars.iv85, 1
  %exitcond89.not = icmp eq i64 %indvars.iv.next86, %wide.trip.count93
  br i1 %exitcond89.not, label %.lr.ph.i, label %.lr.ph74.split, !llvm.loop !53

.lr.ph.i:                                         ; preds = %.lr.ph74.split, %.lr.ph74
  %57 = getelementptr inbounds nuw i8, ptr %3, i64 8
  %58 = zext i16 %5 to i64
  br label %59

59:                                               ; preds = %59, %.lr.ph.i
  %indvars.iv.i = phi i64 [ %58, %.lr.ph.i ], [ %indvars.iv.next.i, %59 ]
  %.016.i = phi i16 [ -1, %.lr.ph.i ], [ %66, %59 ]
  %.01215.i = phi i16 [ %5, %.lr.ph.i ], [ %65, %59 ]
  %indvars.iv.next.i = add nsw i64 %indvars.iv.i, -1
  %60 = getelementptr inbounds nuw [129 x i64], ptr %57, i64 0, i64 %indvars.iv.next.i
  %61 = load i64, ptr %60, align 8, !tbaa !8
  %62 = icmp eq i64 %61, 0
  %63 = and i16 %.016.i, 1
  %64 = select i1 %62, i16 %63, i16 0
  %65 = sub i16 %.01215.i, %64
  %66 = select i1 %62, i16 %.016.i, i16 0
  %67 = icmp samesign ugt i64 %indvars.iv.i, 1
  br i1 %67, label %59, label %sp_clamp_ct.exit, !llvm.loop !54

sp_clamp_ct.exit:                                 ; preds = %59, %.preheader
  %.012.lcssa.i = phi i16 [ 0, %.preheader ], [ %65, %59 ]
  store i16 %.012.lcssa.i, ptr %3, align 8, !tbaa !12
  br label %68

68:                                               ; preds = %sp_clamp_ct.exit, %4
  %.156 = phi i32 [ 0, %sp_clamp_ct.exit ], [ -98, %4 ]
  ret i32 %.156
}